target datalayout = "e-m:e-p270:32:32-p271:32:32-p272:64:64-i64:64-i128:128-f80:128-n8:16:32:64-S128"
target triple = "x86_64-pc-linux-gnu"

%struct.darktable_t = type { %struct.dt_codepath_t, i32, i32, ptr, ptr, ptr, ptr, ptr, ptr, ptr, ptr, ptr, ptr, ptr, ptr, ptr, ptr, ptr, ptr, ptr, ptr, ptr, ptr, ptr, ptr, ptr, ptr, ptr, ptr, ptr, [64 x %struct.dt_pthread_mutex_t], %struct.dt_pthread_mutex_t, %struct.dt_pthread_mutex_t, %struct.dt_pthread_mutex_t, %struct.dt_pthread_mutex_t, %struct.dt_pthread_mutex_t, ptr, ptr, ptr, ptr, ptr, ptr, ptr, ptr, ptr, ptr, ptr, ptr, ptr, %struct.dt_lua_state_t, ptr, double, ptr, i32, [47 x i32], i32, i32, ptr, ptr, %struct.dt_sys_resources_t, %struct.dt_backthumb_t, %struct.dt_gimp_t }
%struct.dt_codepath_t = type { i8, [3 x i8] }
%struct.dt_pthread_mutex_t = type { %union.pthread_mutex_t }
%union.pthread_mutex_t = type { %struct.__pthread_mutex_s }
%struct.__pthread_mutex_s = type { i32, i32, i32, i32, i32, i16, i16, %struct.__pthread_internal_list }
%struct.__pthread_internal_list = type { ptr, ptr }
%struct.dt_lua_state_t = type { i32 }
%struct.dt_sys_resources_t = type { i64, i64, ptr, ptr, i32 }
%struct.dt_backthumb_t = type { double, double, i32, i32, i32, i32 }
%struct.dt_gimp_t = type { i32, ptr, ptr, i32, i32 }
%struct.dt_camctl_t = type { %struct.dt_pthread_mutex_t, %struct.dt_pthread_mutex_t, i64, ptr, ptr, ptr, ptr, ptr, ptr, ptr, ptr, i32, i32, i32 }
%struct.dt_camera_t = type { ptr, ptr, %struct.CameraText, ptr, ptr, %struct.dt_pthread_mutex_t, i32, i32, i32, i32, i32, i32, i32, i32, i32, ptr, %struct.dt_pthread_mutex_t, ptr, %struct.anon, ptr, ptr, i32, i32, i32, i32, ptr, i32, i32, i32, i32, i32, i32, i32, i32, i64, %struct.dt_pthread_mutex_t, %struct.dt_pthread_mutex_t }
%struct.CameraText = type { [32768 x i8] }
%struct.anon = type { ptr, i32 }

@darktable = external global %struct.darktable_t, align 8
@.str.23 = private unnamed_addr constant [61 x i8] c"[camera_control] failed to get model of camera, camera==NULL\00", align 1

; Function Attrs: nounwind uwtable
define ptr @dt_camctl_camera_get_model(ptr noundef %0, ptr noundef %1) #0 {
  %3 = alloca ptr, align 8
  %4 = alloca ptr, align 8
  %5 = alloca ptr, align 8
  %6 = alloca ptr, align 8
  %7 = alloca i32, align 4
  store ptr %0, ptr %4, align 8, !tbaa !6
  store ptr %1, ptr %5, align 8, !tbaa !21
  call void @llvm.lifetime.start.p0(i64 8, ptr %6) #10
  %8 = load ptr, ptr %4, align 8, !tbaa !6
  store ptr %8, ptr %6, align 8, !tbaa !6
  %9 = load ptr, ptr %5, align 8, !tbaa !21
  %10 = icmp ne ptr %9, null
  br i1 %10, label %35, label %11

11:                                               ; preds = %2
  %12 = load ptr, ptr %6, align 8, !tbaa !6
  %13 = getelementptr inbounds nuw %struct.dt_camctl_t, ptr %12, i32 0, i32 10
  %14 = load ptr, ptr %13, align 8, !tbaa !11
  store ptr %14, ptr %5, align 8, !tbaa !21
  %15 = icmp eq ptr %14, null
  br i1 %15, label %16, label %35

16:                                               ; preds = %11
  %17 = load ptr, ptr %6, align 8, !tbaa !6
  %18 = getelementptr inbounds nuw %struct.dt_camctl_t, ptr %17, i32 0, i32 9
  %19 = load ptr, ptr %18, align 8, !tbaa !65
  store ptr %19, ptr %5, align 8, !tbaa !21
  %20 = icmp eq ptr %19, null
  br i1 %20, label %21, label %35

21:                                               ; preds = %16
  br label %22

22:                                               ; preds = %21
  %23 = load i32, ptr getelementptr inbounds nuw (%struct.darktable_t, ptr @darktable, i32 0, i32 2), align 8, !tbaa !22
  %24 = and i32 32, %23
  %25 = icmp ne i32 %24, 0
  br i1 %25, label %26, label %32

26:                                               ; preds = %22
  %27 = load i32, ptr getelementptr inbounds nuw (%struct.darktable_t, ptr @darktable, i32 0, i32 2), align 8, !tbaa !22
  %28 = xor i32 %27, -1
  %29 = and i32 0, %28
  %30 = icmp ne i32 %29, 0
  br i1 %30, label %32, label %31

31:                                               ; preds = %26
  call void (ptr, ...) @dt_print_ext(ptr noundef @.str.23)
  br label %32

32:                                               ; preds = %31, %26, %22
  br label %33

33:                                               ; preds = %32
  br label %34

34:                                               ; preds = %33
  store ptr null, ptr %3, align 8
  store i32 1, ptr %7, align 4
  br label %39

35:                                               ; preds = %16, %11, %2
  %36 = load ptr, ptr %5, align 8, !tbaa !21
  %37 = getelementptr inbounds nuw %struct.dt_camera_t, ptr %36, i32 0, i32 0
  %38 = load ptr, ptr %37, align 8, !tbaa !88
  store ptr %38, ptr %3, align 8
  store i32 1, ptr %7, align 4
  br label %39

39:                                               ; preds = %35, %34
  call void @llvm.lifetime.end.p0(i64 8, ptr %6) #10
  %40 = load ptr, ptr %3, align 8
  ret ptr %40
}