; Function Attrs: nounwind uwtable
define ptr @dt_camctl_camera_get_model(ptr noundef readonly captures(none) %0, ptr noundef readonly %1) local_unnamed_addr #0 {
  %.not = icmp eq ptr %1, null
  br i1 %.not, label %3, label %15

3:                                                ; preds = %2
  %4 = getelementptr inbounds nuw i8, ptr %0, i64 144
  %5 = load ptr, ptr %4, align 8, !tbaa !6
  %6 = icmp eq ptr %5, null
  br i1 %6, label %7, label %15

7:                                                ; preds = %3
  %8 = getelementptr inbounds nuw i8, ptr %0, i64 136
  %9 = load ptr, ptr %8, align 8, !tbaa !61
  %10 = icmp eq ptr %9, null
  br i1 %10, label %11, label %15

11:                                               ; preds = %7
  %12 = load i32, ptr getelementptr inbounds nuw (i8, ptr @darktable, i64 8), align 8, !tbaa !19
  %13 = and i32 %12, 32
  %.not10 = icmp eq i32 %13, 0
  br i1 %.not10, label %17, label %14

14:                                               ; preds = %11
  tail call void (ptr, ...) @dt_print_ext(ptr noundef nonnull @.str.23) #15
  br label %17

15:                                               ; preds = %7, %3, %2
  %.06 = phi ptr [ %1, %2 ], [ %9, %7 ], [ %5, %3 ]
  %16 = load ptr, ptr %.06, align 8, !tbaa !80
  br label %17

17:                                               ; preds = %11, %14, %15
  %.0 = phi ptr [ %16, %15 ], [ null, %14 ], [ null, %11 ]
  ret ptr %.0
}